target datalayout = "e-m:e-p270:32:32-p271:32:32-p272:64:64-i64:64-i128:128-f80:128-n8:16:32:64-S128"
target triple = "x86_64-pc-linux-gnu"

%struct._zend_executor_globals = type { %struct._zval_struct, %struct._zval_struct, [32 x ptr], ptr, ptr, %struct._zend_array, %struct._zend_array, ptr, i32, i32, ptr, ptr, ptr, ptr, ptr, ptr, i64, ptr, ptr, i32, i32, i64, i32, i32, i32, i8, i8, %struct.zend_atomic_bool_s, %struct.zend_atomic_bool_s, ptr, i64, ptr, ptr, %struct._zend_array, %struct._zend_array, i32, i8, %struct._zval_struct, %struct._zval_struct, %struct._zend_stack, %struct._zend_stack, %struct._zend_stack, ptr, i32, i32, i64, ptr, ptr, ptr, %struct._zend_objects_store, ptr, ptr, ptr, [3 x %struct._zend_op], ptr, i8, i8, i64, i32, i32, ptr, [16 x %struct._HashTableIterator], ptr, %union._zend_function, %struct._zend_op, %struct._zend_array, i64, %struct.zend_get_gc_buffer, ptr, ptr, ptr, i64, i8, i32, ptr, ptr, i64, %struct._zend_call_stack, i64, i64, [6 x ptr] }
%struct.zend_atomic_bool_s = type { i8 }
%struct._zval_struct = type { %union._zend_value, %union.anon, %union.anon.2 }
%union._zend_value = type { i64 }
%union.anon = type { i32 }
%union.anon.2 = type { i32 }
%struct._zend_stack = type { i32, i32, i32, ptr }
%struct._zend_objects_store = type { ptr, i32, i32, i32 }
%struct._HashTableIterator = type { ptr, i32, i32 }
%union._zend_function = type { %struct._zend_op_array }
%struct._zend_op_array = type { i8, [3 x i8], i32, ptr, ptr, ptr, i32, i32, ptr, ptr, ptr, ptr, i32, i32, i32, i32, ptr, ptr, ptr, ptr, ptr, i32, i32, ptr, ptr, ptr, i32, i32, i32, i32, ptr, ptr, [6 x ptr] }
%struct._zend_op = type { ptr, %union._znode_op, %union._znode_op, %union._znode_op, i32, i32, i8, i8, i8, i8 }
%union._znode_op = type { i32 }
%struct._zend_array = type { %struct._zend_refcounted_h, %union.anon.4, i32, %union.anon.6, i32, i32, i32, i32, i64, ptr }
%struct._zend_refcounted_h = type { i32, %union.anon.3 }
%union.anon.3 = type { i32 }
%union.anon.4 = type { i32 }
%union.anon.6 = type { ptr }
%struct.zend_get_gc_buffer = type { ptr, ptr, ptr }
%struct._zend_call_stack = type { ptr, i64 }
%struct._zend_string = type { %struct._zend_refcounted_h, i64, i64, [1 x i8] }
%struct._zend_reference = type { %struct._zend_refcounted_h, %struct._zval_struct, %union.zend_property_info_source_list }
%union.zend_property_info_source_list = type { ptr }

@executor_globals = external global %struct._zend_executor_globals, align 8
@.str.14 = private unnamed_addr constant [7 x i8] c"regexp\00", align 1
@.str.15 = private unnamed_addr constant [33 x i8] c"%s(): \22regexp\22 option is missing\00", align 1

; Function Attrs: nounwind uwtable
define hidden void @php_filter_validate_regexp(ptr noundef %0, i64 noundef %1, ptr noundef %2, ptr noundef %3) #0 {
  %5 = alloca ptr, align 8
  %6 = alloca ptr, align 8
  %7 = alloca ptr, align 8
  %8 = alloca ptr, align 8
  %9 = alloca i64, align 8
  %10 = alloca ptr, align 8
  %11 = alloca ptr, align 8
  %12 = alloca i64, align 8
  %13 = alloca ptr, align 8
  %14 = alloca ptr, align 8
  %15 = alloca ptr, align 8
  %16 = alloca ptr, align 8
  %17 = alloca i32, align 4
  %18 = alloca ptr, align 8
  %19 = alloca ptr, align 8
  %20 = alloca i32, align 4
  %21 = alloca i32, align 4
  store ptr %0, ptr %11, align 8
  store i64 %1, ptr %12, align 8
  store ptr %2, ptr %13, align 8
  store ptr %3, ptr %14, align 8
  store ptr null, ptr %18, align 8
  store ptr null, ptr %19, align 8
  store ptr null, ptr %16, align 8
  store i32 0, ptr %17, align 4
  %22 = load ptr, ptr %13, align 8
  %23 = icmp ne ptr %22, null
  br i1 %23, label %24, label %62

24:                                               ; preds = %4
  %25 = load ptr, ptr %13, align 8
  %26 = getelementptr inbounds %struct._zval_struct, ptr %25, i32 0, i32 0
  %27 = load ptr, ptr %26, align 8
  store ptr %27, ptr %7, align 8
  store ptr @.str.14, ptr %8, align 8
  store i64 6, ptr %9, align 8
  %28 = load ptr, ptr %7, align 8
  %29 = load ptr, ptr %8, align 8
  %30 = load i64, ptr %9, align 8
  %31 = call ptr @zend_hash_str_find(ptr noundef %28, ptr noundef %29, i64 noundef %30) #10
  store ptr %31, ptr %10, align 8
  %32 = load ptr, ptr %10, align 8
  %33 = icmp ne ptr %32, null
  br i1 %33, label %34, label %46

34:                                               ; preds = %24
  %35 = load ptr, ptr %10, align 8
  store ptr %35, ptr %6, align 8
  %36 = load ptr, ptr %6, align 8
  %37 = getelementptr inbounds %struct._zval_struct, ptr %36, i32 0, i32 1
  %38 = load i8, ptr %37, align 8
  %39 = zext i8 %38 to i32
  %40 = icmp eq i32 %39, 10
  br i1 %40, label %41, label %45

41:                                               ; preds = %34
  %42 = load ptr, ptr %10, align 8
  %43 = load ptr, ptr %42, align 8
  %44 = getelementptr inbounds %struct._zend_reference, ptr %43, i32 0, i32 1
  store ptr %44, ptr %10, align 8
  br label %45

45:                                               ; preds = %41, %34
  br label %46

46:                                               ; preds = %45, %24
  %47 = load ptr, ptr %10, align 8
  store ptr %47, ptr %15, align 8
  %48 = icmp ne ptr %47, null
  br i1 %48, label %49, label %61

49:                                               ; preds = %46
  %50 = load ptr, ptr %15, align 8
  store ptr %50, ptr %5, align 8
  %51 = load ptr, ptr %5, align 8
  %52 = getelementptr inbounds %struct._zval_struct, ptr %51, i32 0, i32 1
  %53 = load i8, ptr %52, align 8
  %54 = zext i8 %53 to i32
  %55 = icmp eq i32 %54, 6
  br i1 %55, label %56, label %60

56:                                               ; preds = %49
  %57 = load ptr, ptr %15, align 8
  %58 = getelementptr inbounds %struct._zval_struct, ptr %57, i32 0, i32 0
  %59 = load ptr, ptr %58, align 8
  store ptr %59, ptr %16, align 8
  store i32 1, ptr %17, align 4
  br label %60

60:                                               ; preds = %56, %49
  br label %61

61:                                               ; preds = %60, %46
  br label %62

62:                                               ; preds = %61, %4
  %63 = load i32, ptr %17, align 4
  %64 = icmp ne i32 %63, 0
  br i1 %64, label %88, label %65

65:                                               ; preds = %62
  %66 = call ptr @get_active_function_name()
  call void (ptr, ...) @zend_value_error(ptr noundef @.str.15, ptr noundef %66)
  %67 = load ptr, ptr getelementptr inbounds (%struct._zend_executor_globals, ptr @executor_globals, i32 0, i32 50), align 8
  %68 = icmp ne ptr %67, null
  br i1 %68, label %69, label %70

69:                                               ; preds = %65
  br label %183

70:                                               ; preds = %65
  %71 = load i64, ptr %12, align 8
  %72 = and i64 %71, 134217728
  %73 = icmp ne i64 %72, 0
  br i1 %73, label %74, label %80

74:                                               ; preds = %70
  %75 = load ptr, ptr %11, align 8
  call void @zval_ptr_dtor(ptr noundef %75)
  br label %76

76:                                               ; preds = %74
  %77 = load ptr, ptr %11, align 8
  %78 = getelementptr inbounds %struct._zval_struct, ptr %77, i32 0, i32 1
  store i32 1, ptr %78, align 8
  br label %79

79:                                               ; preds = %76
  br label %86

80:                                               ; preds = %70
  %81 = load ptr, ptr %11, align 8
  call void @zval_ptr_dtor(ptr noundef %81)
  br label %82

82:                                               ; preds = %80
  %83 = load ptr, ptr %11, align 8
  %84 = getelementptr inbounds %struct._zval_struct, ptr %83, i32 0, i32 1
  store i32 2, ptr %84, align 8
  br label %85

85:                                               ; preds = %82
  br label %86

86:                                               ; preds = %85, %79
  br label %87

87:                                               ; preds = %86
  br label %183

88:                                               ; preds = %62
  %89 = load ptr, ptr %16, align 8
  %90 = call ptr @pcre_get_compiled_regex(ptr noundef %89, ptr noundef %20)
  store ptr %90, ptr %18, align 8
  %91 = load ptr, ptr %18, align 8
  %92 = icmp ne ptr %91, null
  br i1 %92, label %115, label %93

93:                                               ; preds = %88
  %94 = load ptr, ptr getelementptr inbounds (%struct._zend_executor_globals, ptr @executor_globals, i32 0, i32 50), align 8
  %95 = icmp ne ptr %94, null
  br i1 %95, label %96, label %97

96:                                               ; preds = %93
  br label %183

97:                                               ; preds = %93
  %98 = load i64, ptr %12, align 8
  %99 = and i64 %98, 134217728
  %100 = icmp ne i64 %99, 0
  br i1 %100, label %101, label %107

101:                                              ; preds = %97
  %102 = load ptr, ptr %11, align 8
  call void @zval_ptr_dtor(ptr noundef %102)
  br label %103

103:                                              ; preds = %101
  %104 = load ptr, ptr %11, align 8
  %105 = getelementptr inbounds %struct._zval_struct, ptr %104, i32 0, i32 1
  store i32 1, ptr %105, align 8
  br label %106

106:                                              ; preds = %103
  br label %113

107:                                              ; preds = %97
  %108 = load ptr, ptr %11, align 8
  call void @zval_ptr_dtor(ptr noundef %108)
  br label %109

109:                                              ; preds = %107
  %110 = load ptr, ptr %11, align 8
  %111 = getelementptr inbounds %struct._zval_struct, ptr %110, i32 0, i32 1
  store i32 2, ptr %111, align 8
  br label %112

112:                                              ; preds = %109
  br label %113

113:                                              ; preds = %112, %106
  br label %114

114:                                              ; preds = %113
  br label %183

115:                                              ; preds = %88
  %116 = load i32, ptr %20, align 4
  %117 = load ptr, ptr %18, align 8
  %118 = call ptr @php_pcre_create_match_data(i32 noundef %116, ptr noundef %117)
  store ptr %118, ptr %19, align 8
  %119 = load ptr, ptr %19, align 8
  %120 = icmp ne ptr %119, null
  br i1 %120, label %143, label %121

121:                                              ; preds = %115
  %122 = load ptr, ptr getelementptr inbounds (%struct._zend_executor_globals, ptr @executor_globals, i32 0, i32 50), align 8
  %123 = icmp ne ptr %122, null
  br i1 %123, label %124, label %125

124:                                              ; preds = %121
  br label %183

125:                                              ; preds = %121
  %126 = load i64, ptr %12, align 8
  %127 = and i64 %126, 134217728
  %128 = icmp ne i64 %127, 0
  br i1 %128, label %129, label %135

129:                                              ; preds = %125
  %130 = load ptr, ptr %11, align 8
  call void @zval_ptr_dtor(ptr noundef %130)
  br label %131

131:                                              ; preds = %129
  %132 = load ptr, ptr %11, align 8
  %133 = getelementptr inbounds %struct._zval_struct, ptr %132, i32 0, i32 1
  store i32 1, ptr %133, align 8
  br label %134

134:                                              ; preds = %131
  br label %141

135:                                              ; preds = %125
  %136 = load ptr, ptr %11, align 8
  call void @zval_ptr_dtor(ptr noundef %136)
  br label %137

137:                                              ; preds = %135
  %138 = load ptr, ptr %11, align 8
  %139 = getelementptr inbounds %struct._zval_struct, ptr %138, i32 0, i32 1
  store i32 2, ptr %139, align 8
  br label %140

140:                                              ; preds = %137
  br label %141

141:                                              ; preds = %140, %134
  br label %142

142:                                              ; preds = %141
  br label %183

143:                                              ; preds = %115
  %144 = load ptr, ptr %18, align 8
  %145 = load ptr, ptr %11, align 8
  %146 = getelementptr inbounds %struct._zval_struct, ptr %145, i32 0, i32 0
  %147 = load ptr, ptr %146, align 8
  %148 = getelementptr inbounds %struct._zend_string, ptr %147, i32 0, i32 3
  %149 = getelementptr inbounds [1 x i8], ptr %148, i64 0, i64 0
  %150 = load ptr, ptr %11, align 8
  %151 = getelementptr inbounds %struct._zval_struct, ptr %150, i32 0, i32 0
  %152 = load ptr, ptr %151, align 8
  %153 = getelementptr inbounds %struct._zend_string, ptr %152, i32 0, i32 2
  %154 = load i64, ptr %153, align 8
  %155 = load ptr, ptr %19, align 8
  %156 = call ptr @php_pcre_mctx()
  %157 = call i32 @php_pcre2_match(ptr noundef %144, ptr noundef %149, i64 noundef %154, i64 noundef 0, i32 noundef 0, ptr noundef %155, ptr noundef %156)
  store i32 %157, ptr %21, align 4
  %158 = load ptr, ptr %19, align 8
  call void @php_pcre_free_match_data(ptr noundef %158)
  %159 = load i32, ptr %21, align 4
  %160 = icmp slt i32 %159, 0
  br i1 %160, label %161, label %183

161:                                              ; preds = %143
  %162 = load ptr, ptr getelementptr inbounds (%struct._zend_executor_globals, ptr @executor_globals, i32 0, i32 50), align 8
  %163 = icmp ne ptr %162, null
  br i1 %163, label %164, label %165

164:                                              ; preds = %161
  br label %183

165:                                              ; preds = %161
  %166 = load i64, ptr %12, align 8
  %167 = and i64 %166, 134217728
  %168 = icmp ne i64 %167, 0
  br i1 %168, label %169, label %175

169:                                              ; preds = %165
  %170 = load ptr, ptr %11, align 8
  call void @zval_ptr_dtor(ptr noundef %170)
  br label %171

171:                                              ; preds = %169
  %172 = load ptr, ptr %11, align 8
  %173 = getelementptr inbounds %struct._zval_struct, ptr %172, i32 0, i32 1
  store i32 1, ptr %173, align 8
  br label %174

174:                                              ; preds = %171
  br label %181

175:                                              ; preds = %165
  %176 = load ptr, ptr %11, align 8
  call void @zval_ptr_dtor(ptr noundef %176)
  br label %177

177:                                              ; preds = %175
  %178 = load ptr, ptr %11, align 8
  %179 = getelementptr inbounds %struct._zval_struct, ptr %178, i32 0, i32 1
  store i32 2, ptr %179, align 8
  br label %180

180:                                              ; preds = %177
  br label %181

181:                                              ; preds = %180, %174
  br label %182

182:                                              ; preds = %181
  br label %183

183:                                              ; preds = %182, %164, %143, %142, %124, %114, %96, %87, %69
  ret void
}