; Function Attrs: nounwind uwtable
define hidden void @php_filter_validate_regexp(ptr noundef %0, i64 noundef %1, ptr noundef readonly %2, ptr nocapture noundef readnone %3) local_unnamed_addr #0 {
  %5 = alloca i32, align 4
  %.not = icmp eq ptr %2, null
  br i1 %.not, label %19, label %6

6:                                                ; preds = %4
  %7 = load ptr, ptr %2, align 8
  %8 = tail call ptr @zend_hash_str_find(ptr noundef %7, ptr noundef nonnull @.str.14, i64 noundef 6) #14
  %.not50 = icmp eq ptr %8, null
  br i1 %.not50, label %19, label %9

9:                                                ; preds = %6
  %10 = getelementptr inbounds i8, ptr %8, i64 8
  %11 = load i8, ptr %10, align 8
  %12 = icmp eq i8 %11, 10
  br i1 %12, label %13, label %16

13:                                               ; preds = %9
  %14 = load ptr, ptr %8, align 8
  %15 = getelementptr inbounds i8, ptr %14, i64 8
  %.phi.trans.insert = getelementptr inbounds i8, ptr %14, i64 16
  %.pre = load i8, ptr %.phi.trans.insert, align 8
  br label %16

16:                                               ; preds = %13, %9
  %17 = phi i8 [ %11, %9 ], [ %.pre, %13 ]
  %.0.ph = phi ptr [ %8, %9 ], [ %15, %13 ]
  %18 = icmp eq i8 %17, 6
  br i1 %18, label %27, label %19

19:                                               ; preds = %16, %4, %6
  %20 = tail call ptr @get_active_function_name() #14
  tail call void (ptr, ...) @zend_value_error(ptr noundef nonnull @.str.15, ptr noundef %20) #14
  %21 = load ptr, ptr getelementptr inbounds (%struct._zend_executor_globals, ptr @executor_globals, i64 0, i32 50), align 8
  %.not53 = icmp eq ptr %21, null
  br i1 %.not53, label %22, label %62

22:                                               ; preds = %19
  %23 = and i64 %1, 134217728
  %.not54 = icmp eq i64 %23, 0
  tail call void @zval_ptr_dtor(ptr noundef %0) #14
  %24 = getelementptr inbounds i8, ptr %0, i64 8
  br i1 %.not54, label %26, label %25

25:                                               ; preds = %22
  store i32 1, ptr %24, align 8
  br label %62

26:                                               ; preds = %22
  store i32 2, ptr %24, align 8
  br label %62

27:                                               ; preds = %16
  %28 = load ptr, ptr %.0.ph, align 8
  %29 = call ptr @pcre_get_compiled_regex(ptr noundef %28, ptr noundef nonnull %5) #14
  %.not55 = icmp eq ptr %29, null
  br i1 %.not55, label %30, label %37

30:                                               ; preds = %27
  %31 = load ptr, ptr getelementptr inbounds (%struct._zend_executor_globals, ptr @executor_globals, i64 0, i32 50), align 8
  %.not56 = icmp eq ptr %31, null
  br i1 %.not56, label %32, label %62

32:                                               ; preds = %30
  %33 = and i64 %1, 134217728
  %.not57 = icmp eq i64 %33, 0
  call void @zval_ptr_dtor(ptr noundef %0) #14
  %34 = getelementptr inbounds i8, ptr %0, i64 8
  br i1 %.not57, label %36, label %35

35:                                               ; preds = %32
  store i32 1, ptr %34, align 8
  br label %62

36:                                               ; preds = %32
  store i32 2, ptr %34, align 8
  br label %62

37:                                               ; preds = %27
  %38 = load i32, ptr %5, align 4
  %39 = call ptr @php_pcre_create_match_data(i32 noundef %38, ptr noundef nonnull %29) #14
  %.not58 = icmp eq ptr %39, null
  br i1 %.not58, label %40, label %47

40:                                               ; preds = %37
  %41 = load ptr, ptr getelementptr inbounds (%struct._zend_executor_globals, ptr @executor_globals, i64 0, i32 50), align 8
  %.not59 = icmp eq ptr %41, null
  br i1 %.not59, label %42, label %62

42:                                               ; preds = %40
  %43 = and i64 %1, 134217728
  %.not60 = icmp eq i64 %43, 0
  call void @zval_ptr_dtor(ptr noundef %0) #14
  %44 = getelementptr inbounds i8, ptr %0, i64 8
  br i1 %.not60, label %46, label %45

45:                                               ; preds = %42
  store i32 1, ptr %44, align 8
  br label %62

46:                                               ; preds = %42
  store i32 2, ptr %44, align 8
  br label %62

47:                                               ; preds = %37
  %48 = load ptr, ptr %0, align 8
  %49 = getelementptr inbounds i8, ptr %48, i64 24
  %50 = getelementptr inbounds i8, ptr %48, i64 16
  %51 = load i64, ptr %50, align 8
  %52 = call ptr @php_pcre_mctx() #14
  %53 = call i32 @php_pcre2_match(ptr noundef nonnull %29, ptr noundef nonnull %49, i64 noundef %51, i64 noundef 0, i32 noundef 0, ptr noundef nonnull %39, ptr noundef %52) #14
  call void @php_pcre_free_match_data(ptr noundef nonnull %39) #14
  %54 = icmp sgt i32 %53, -1
  %55 = load ptr, ptr getelementptr inbounds (%struct._zend_executor_globals, ptr @executor_globals, i64 0, i32 50), align 8
  %56 = icmp ne ptr %55, null
  %or.cond = select i1 %54, i1 true, i1 %56
  br i1 %or.cond, label %62, label %57

57:                                               ; preds = %47
  %58 = and i64 %1, 134217728
  %.not61 = icmp eq i64 %58, 0
  call void @zval_ptr_dtor(ptr noundef nonnull %0) #14
  %59 = getelementptr inbounds i8, ptr %0, i64 8
  br i1 %.not61, label %61, label %60

60:                                               ; preds = %57
  store i32 1, ptr %59, align 8
  br label %62

61:                                               ; preds = %57
  store i32 2, ptr %59, align 8
  br label %62

62:                                               ; preds = %61, %60, %46, %45, %40, %36, %35, %30, %26, %25, %19, %47
  ret void
}